target datalayout = "e-m:e-p270:32:32-p271:32:32-p272:64:64-i64:64-i128:128-f80:128-n8:16:32:64-S128"
target triple = "x86_64-pc-linux-gnu"

%"struct.cv::gimpl::FluidMapper" = type <{ ptr, double, i32, [4 x i8] }>
%"struct.cv::gimpl::FluidUpscaleMapper" = type { %"struct.cv::gimpl::FluidMapper.base", i32 }
%"struct.cv::gimpl::FluidMapper.base" = type <{ ptr, double, i32 }>

; Function Attrs: mustprogress nounwind uwtable
define linkonce_odr hidden void @_ZN2cv4util23suppress_unused_warningIbEEvRKT_(ptr noundef nonnull align 1 dereferenceable(1) %0) #7 comdat {
  %2 = alloca ptr, align 8
  store ptr %0, ptr %2, align 8, !tbaa !238
  ret void
}

; Function Attrs: inlinehint mustprogress nounwind uwtable
define internal noundef double @_ZN12_GLOBAL__N_114inCoordUpscaleEid(i32 noundef %0, double noundef %1) #8 {
  %3 = alloca i32, align 4
  %4 = alloca double, align 8
  store i32 %0, ptr %3, align 4, !tbaa !146
  store double %1, ptr %4, align 8, !tbaa !170
  %5 = load i32, ptr %3, align 4, !tbaa !146
  %6 = sitofp i32 %5 to double
  %7 = fadd double %6, 5.000000e-01
  %8 = load double, ptr %4, align 8, !tbaa !170
  %9 = call double @llvm.fmuladd.f64(double %7, double %8, double -5.000000e-01)
  ret double %9
}

; Function Attrs: inlinehint mustprogress uwtable
define internal noundef i32 @_ZN12_GLOBAL__N_118upscaleWindowStartEid(i32 noundef %0, double noundef %1) #6 {
  %3 = alloca i32, align 4
  %4 = alloca double, align 8
  %5 = alloca i32, align 4
  %6 = alloca i8, align 1
  store i32 %0, ptr %3, align 4, !tbaa !146
  store double %1, ptr %4, align 8, !tbaa !170
  call void @llvm.lifetime.start.p0(i64 4, ptr %5) #3
  %7 = load i32, ptr %3, align 4, !tbaa !146
  %8 = load double, ptr %4, align 8, !tbaa !170
  %9 = call noundef double @_ZN12_GLOBAL__N_114inCoordUpscaleEid(i32 noundef %7, double noundef %8)
  %10 = fptosi double %9 to i32
  store i32 %10, ptr %5, align 4, !tbaa !146
  call void @llvm.lifetime.start.p0(i64 1, ptr %6) #3
  store i8 0, ptr %6, align 1, !tbaa !123
  call void @_ZN2cv4util23suppress_unused_warningIbEEvRKT_(ptr noundef nonnull align 1 dereferenceable(1) %6)
  call void @llvm.lifetime.end.p0(i64 1, ptr %6) #3
  %11 = load i32, ptr %5, align 4, !tbaa !146
  call void @llvm.lifetime.end.p0(i64 4, ptr %5) #3
  ret i32 %11
}

; Function Attrs: inlinehint mustprogress uwtable
define internal noundef i32 @_ZN12_GLOBAL__N_116upscaleWindowEndEidi(i32 noundef %0, double noundef %1, i32 noundef %2) #6 {
  %4 = alloca i32, align 4
  %5 = alloca double, align 8
  %6 = alloca i32, align 4
  %7 = alloca i32, align 4
  store i32 %0, ptr %4, align 4, !tbaa !146
  store double %1, ptr %5, align 8, !tbaa !170
  store i32 %2, ptr %6, align 4, !tbaa !146
  call void @llvm.lifetime.start.p0(i64 4, ptr %7) #3
  %8 = load i32, ptr %4, align 4, !tbaa !146
  %9 = load double, ptr %5, align 8, !tbaa !170
  %10 = call noundef double @_ZN12_GLOBAL__N_114inCoordUpscaleEid(i32 noundef %8, double noundef %9)
  %11 = call double @llvm.ceil.f64(double %10)
  %12 = fadd double %11, 1.000000e+00
  %13 = fptosi double %12 to i32
  store i32 %13, ptr %7, align 4, !tbaa !146
  %14 = load i32, ptr %7, align 4, !tbaa !146
  %15 = load i32, ptr %6, align 4, !tbaa !146
  %16 = icmp sgt i32 %14, %15
  br i1 %16, label %17, label %19

17:                                               ; preds = %3
  %18 = load i32, ptr %6, align 4, !tbaa !146
  store i32 %18, ptr %7, align 4, !tbaa !146
  br label %19

19:                                               ; preds = %17, %3
  %20 = load i32, ptr %7, align 4, !tbaa !146
  call void @llvm.lifetime.end.p0(i64 4, ptr %7) #3
  ret i32 %20
}

; Function Attrs: mustprogress uwtable
define hidden noundef i32 @_ZNK2cv5gimpl18FluidUpscaleMapper11firstWindowEii(ptr noundef nonnull align 8 dereferenceable(24) %0, i32 noundef %1, i32 noundef %2) unnamed_addr #4 align 2 {
  %4 = alloca ptr, align 8
  %5 = alloca i32, align 4
  %6 = alloca i32, align 4
  store ptr %0, ptr %4, align 8, !tbaa !172
  store i32 %1, ptr %5, align 4, !tbaa !146
  store i32 %2, ptr %6, align 4, !tbaa !146
  %7 = load ptr, ptr %4, align 8
  %8 = load i32, ptr %5, align 4, !tbaa !146
  %9 = load i32, ptr %6, align 4, !tbaa !146
  %10 = add nsw i32 %8, %9
  %11 = sub nsw i32 %10, 1
  %12 = getelementptr inbounds nuw %"struct.cv::gimpl::FluidMapper", ptr %7, i32 0, i32 1
  %13 = load double, ptr %12, align 8, !tbaa !167
  %14 = getelementptr inbounds nuw %"struct.cv::gimpl::FluidUpscaleMapper", ptr %7, i32 0, i32 1
  %15 = load i32, ptr %14, align 4, !tbaa !174
  %16 = call noundef i32 @_ZN12_GLOBAL__N_116upscaleWindowEndEidi(i32 noundef %11, double noundef %13, i32 noundef %15)
  %17 = load i32, ptr %5, align 4, !tbaa !146
  %18 = getelementptr inbounds nuw %"struct.cv::gimpl::FluidMapper", ptr %7, i32 0, i32 1
  %19 = load double, ptr %18, align 8, !tbaa !167
  %20 = call noundef i32 @_ZN12_GLOBAL__N_118upscaleWindowStartEid(i32 noundef %17, double noundef %19)
  %21 = sub nsw i32 %16, %20
  ret i32 %21
}