; Function Attrs: mustprogress nofree norecurse nosync nounwind willreturn memory(argmem: read) uwtable
define hidden noundef i32 @_ZNK2cv5gimpl18FluidUpscaleMapper11firstWindowEii(ptr noundef nonnull readonly align 8 captures(none) dereferenceable(24) %0, i32 noundef %1, i32 noundef %2) unnamed_addr #9 align 2 {
  %4 = add i32 %1, -1
  %5 = add i32 %4, %2
  %6 = getelementptr inbounds nuw i8, ptr %0, i64 8
  %7 = load double, ptr %6, align 8, !tbaa !180
  %8 = getelementptr inbounds nuw i8, ptr %0, i64 20
  %9 = load i32, ptr %8, align 4, !tbaa !184
  %10 = sitofp i32 %5 to double
  %11 = fadd double %10, 5.000000e-01
  %12 = tail call noundef double @llvm.fmuladd.f64(double %11, double %7, double -5.000000e-01)
  %13 = tail call double @llvm.ceil.f64(double %12)
  %14 = fadd double %13, 1.000000e+00
  %15 = fptosi double %14 to i32
  %spec.select.i = tail call noundef i32 @llvm.smin.i32(i32 %9, i32 %15)
  %16 = sitofp i32 %1 to double
  %17 = fadd double %16, 5.000000e-01
  %18 = tail call noundef double @llvm.fmuladd.f64(double %17, double %7, double -5.000000e-01)
  %19 = fptosi double %18 to i32
  %20 = sub nsw i32 %spec.select.i, %19
  ret i32 %20
}